target datalayout = "e-m:e-p270:32:32-p271:32:32-p272:64:64-i64:64-i128:128-f80:128-n8:16:32:64-S128"
target triple = "x86_64-pc-linux-gnu"

%"struct.Luau::CodeGen::IrOp" = type { i32 }

; Function Attrs: mustprogress uwtable
define dso_local void @_ZN4Luau7CodeGen26translateInstForGPrepInextERNS0_9IrBuilderEPKji(ptr noundef nonnull align 8 dereferenceable(752) %0, ptr noundef %1, i32 noundef %2) #0 {
  %4 = alloca ptr, align 8
  %5 = alloca ptr, align 8
  %6 = alloca i32, align 4
  %7 = alloca i32, align 4
  %8 = alloca %"struct.Luau::CodeGen::IrOp", align 4
  %9 = alloca %"struct.Luau::CodeGen::IrOp", align 4
  %10 = alloca %"struct.Luau::CodeGen::IrOp", align 4
  %11 = alloca %"struct.Luau::CodeGen::IrOp", align 4
  %12 = alloca %"struct.Luau::CodeGen::IrOp", align 4
  %13 = alloca %"struct.Luau::CodeGen::IrOp", align 4
  %14 = alloca %"struct.Luau::CodeGen::IrOp", align 4
  %15 = alloca %"struct.Luau::CodeGen::IrOp", align 4
  %16 = alloca %"struct.Luau::CodeGen::IrOp", align 4
  %17 = alloca %"struct.Luau::CodeGen::IrOp", align 4
  %18 = alloca %"struct.Luau::CodeGen::IrOp", align 4
  %19 = alloca %"struct.Luau::CodeGen::IrOp", align 4
  %20 = alloca %"struct.Luau::CodeGen::IrOp", align 4
  %21 = alloca %"struct.Luau::CodeGen::IrOp", align 4
  %22 = alloca %"struct.Luau::CodeGen::IrOp", align 4
  %23 = alloca %"struct.Luau::CodeGen::IrOp", align 4
  %24 = alloca %"struct.Luau::CodeGen::IrOp", align 4
  %25 = alloca %"struct.Luau::CodeGen::IrOp", align 4
  %26 = alloca %"struct.Luau::CodeGen::IrOp", align 4
  %27 = alloca %"struct.Luau::CodeGen::IrOp", align 4
  %28 = alloca %"struct.Luau::CodeGen::IrOp", align 4
  %29 = alloca %"struct.Luau::CodeGen::IrOp", align 4
  %30 = alloca %"struct.Luau::CodeGen::IrOp", align 4
  %31 = alloca %"struct.Luau::CodeGen::IrOp", align 4
  %32 = alloca %"struct.Luau::CodeGen::IrOp", align 4
  %33 = alloca %"struct.Luau::CodeGen::IrOp", align 4
  %34 = alloca %"struct.Luau::CodeGen::IrOp", align 4
  %35 = alloca %"struct.Luau::CodeGen::IrOp", align 4
  %36 = alloca %"struct.Luau::CodeGen::IrOp", align 4
  %37 = alloca %"struct.Luau::CodeGen::IrOp", align 4
  %38 = alloca %"struct.Luau::CodeGen::IrOp", align 4
  %39 = alloca %"struct.Luau::CodeGen::IrOp", align 4
  %40 = alloca %"struct.Luau::CodeGen::IrOp", align 4
  %41 = alloca %"struct.Luau::CodeGen::IrOp", align 4
  %42 = alloca %"struct.Luau::CodeGen::IrOp", align 4
  %43 = alloca %"struct.Luau::CodeGen::IrOp", align 4
  %44 = alloca %"struct.Luau::CodeGen::IrOp", align 4
  %45 = alloca %"struct.Luau::CodeGen::IrOp", align 4
  %46 = alloca %"struct.Luau::CodeGen::IrOp", align 4
  %47 = alloca %"struct.Luau::CodeGen::IrOp", align 4
  %48 = alloca %"struct.Luau::CodeGen::IrOp", align 4
  %49 = alloca %"struct.Luau::CodeGen::IrOp", align 4
  %50 = alloca %"struct.Luau::CodeGen::IrOp", align 4
  %51 = alloca %"struct.Luau::CodeGen::IrOp", align 4
  %52 = alloca %"struct.Luau::CodeGen::IrOp", align 4
  store ptr %0, ptr %4, align 8, !tbaa !4
  store ptr %1, ptr %5, align 8, !tbaa !9
  store i32 %2, ptr %6, align 4, !tbaa !11
  call void @llvm.lifetime.start.p0(i64 4, ptr %7) #13
  %53 = load ptr, ptr %5, align 8, !tbaa !9
  %54 = load i32, ptr %53, align 4, !tbaa !11
  %55 = lshr i32 %54, 8
  %56 = and i32 %55, 255
  store i32 %56, ptr %7, align 4, !tbaa !11
  call void @llvm.lifetime.start.p0(i64 4, ptr %8) #13
  %57 = load ptr, ptr %4, align 8, !tbaa !4
  %58 = load i32, ptr %6, align 4, !tbaa !11
  %59 = add nsw i32 %58, 1
  %60 = load ptr, ptr %5, align 8, !tbaa !9
  %61 = load i32, ptr %60, align 4, !tbaa !11
  %62 = ashr i32 %61, 16
  %63 = add nsw i32 %59, %62
  %64 = call i32 @_ZN4Luau7CodeGen9IrBuilder11blockAtInstEj(ptr noundef nonnull align 8 dereferenceable(752) %57, i32 noundef %63)
  %65 = getelementptr inbounds nuw %"struct.Luau::CodeGen::IrOp", ptr %8, i32 0, i32 0
  store i32 %64, ptr %65, align 4
  call void @llvm.lifetime.start.p0(i64 4, ptr %9) #13
  %66 = load ptr, ptr %4, align 8, !tbaa !4
  %67 = call i32 @_ZN4Luau7CodeGen9IrBuilder5blockENS0_11IrBlockKindE(ptr noundef nonnull align 8 dereferenceable(752) %66, i8 noundef zeroext 1)
  %68 = getelementptr inbounds nuw %"struct.Luau::CodeGen::IrOp", ptr %9, i32 0, i32 0
  store i32 %67, ptr %68, align 4
  call void @llvm.lifetime.start.p0(i64 4, ptr %10) #13
  %69 = load ptr, ptr %4, align 8, !tbaa !4
  %70 = call i32 @_ZN4Luau7CodeGen9IrBuilder5blockENS0_11IrBlockKindE(ptr noundef nonnull align 8 dereferenceable(752) %69, i8 noundef zeroext 2)
  %71 = getelementptr inbounds nuw %"struct.Luau::CodeGen::IrOp", ptr %10, i32 0, i32 0
  store i32 %70, ptr %71, align 4
  %72 = load ptr, ptr %4, align 8, !tbaa !4
  %73 = load ptr, ptr %4, align 8, !tbaa !4
  %74 = load i32, ptr %6, align 4, !tbaa !11
  %75 = call i32 @_ZN4Luau7CodeGen9IrBuilder6vmExitEj(ptr noundef nonnull align 8 dereferenceable(752) %73, i32 noundef %74)
  %76 = getelementptr inbounds nuw %"struct.Luau::CodeGen::IrOp", ptr %11, i32 0, i32 0
  store i32 %75, ptr %76, align 4
  %77 = getelementptr inbounds nuw %"struct.Luau::CodeGen::IrOp", ptr %11, i32 0, i32 0
  %78 = load i32, ptr %77, align 4
  %79 = call i32 @_ZN4Luau7CodeGen9IrBuilder4instENS0_5IrCmdENS0_4IrOpE(ptr noundef nonnull align 8 dereferenceable(752) %72, i8 noundef zeroext 86, i32 %78)
  %80 = getelementptr inbounds nuw %"struct.Luau::CodeGen::IrOp", ptr %12, i32 0, i32 0
  store i32 %79, ptr %80, align 4
  call void @llvm.lifetime.start.p0(i64 4, ptr %13) #13
  %81 = load ptr, ptr %4, align 8, !tbaa !4
  %82 = load ptr, ptr %4, align 8, !tbaa !4
  %83 = load i32, ptr %7, align 4, !tbaa !11
  %84 = add nsw i32 %83, 1
  %85 = trunc i32 %84 to i8
  %86 = call i32 @_ZN4Luau7CodeGen9IrBuilder5vmRegEh(ptr noundef nonnull align 8 dereferenceable(752) %82, i8 noundef zeroext %85)
  %87 = getelementptr inbounds nuw %"struct.Luau::CodeGen::IrOp", ptr %14, i32 0, i32 0
  store i32 %86, ptr %87, align 4
  %88 = getelementptr inbounds nuw %"struct.Luau::CodeGen::IrOp", ptr %14, i32 0, i32 0
  %89 = load i32, ptr %88, align 4
  %90 = call i32 @_ZN4Luau7CodeGen9IrBuilder4instENS0_5IrCmdENS0_4IrOpE(ptr noundef nonnull align 8 dereferenceable(752) %81, i8 noundef zeroext 1, i32 %89)
  %91 = getelementptr inbounds nuw %"struct.Luau::CodeGen::IrOp", ptr %13, i32 0, i32 0
  store i32 %90, ptr %91, align 4
  %92 = load ptr, ptr %4, align 8, !tbaa !4
  call void @llvm.memcpy.p0.p0.i64(ptr align 4 %15, ptr align 4 %13, i64 4, i1 false), !tbaa.struct !112
  %93 = load ptr, ptr %4, align 8, !tbaa !4
  %94 = call i32 @_ZN4Luau7CodeGen9IrBuilder8constTagEh(ptr noundef nonnull align 8 dereferenceable(752) %93, i8 noundef zeroext 6)
  %95 = getelementptr inbounds nuw %"struct.Luau::CodeGen::IrOp", ptr %16, i32 0, i32 0
  store i32 %94, ptr %95, align 4
  call void @llvm.memcpy.p0.p0.i64(ptr align 4 %17, ptr align 4 %9, i64 4, i1 false), !tbaa.struct !112
  %96 = getelementptr inbounds nuw %"struct.Luau::CodeGen::IrOp", ptr %15, i32 0, i32 0
  %97 = load i32, ptr %96, align 4
  %98 = getelementptr inbounds nuw %"struct.Luau::CodeGen::IrOp", ptr %16, i32 0, i32 0
  %99 = load i32, ptr %98, align 4
  %100 = getelementptr inbounds nuw %"struct.Luau::CodeGen::IrOp", ptr %17, i32 0, i32 0
  %101 = load i32, ptr %100, align 4
  %102 = call i32 @_ZN4Luau7CodeGen9IrBuilder4instENS0_5IrCmdENS0_4IrOpES3_S3_(ptr noundef nonnull align 8 dereferenceable(752) %92, i8 noundef zeroext 82, i32 %97, i32 %99, i32 %101)
  %103 = getelementptr inbounds nuw %"struct.Luau::CodeGen::IrOp", ptr %18, i32 0, i32 0
  store i32 %102, ptr %103, align 4
  call void @llvm.lifetime.start.p0(i64 4, ptr %19) #13
  %104 = load ptr, ptr %4, align 8, !tbaa !4
  %105 = load ptr, ptr %4, align 8, !tbaa !4
  %106 = load i32, ptr %7, align 4, !tbaa !11
  %107 = add nsw i32 %106, 2
  %108 = trunc i32 %107 to i8
  %109 = call i32 @_ZN4Luau7CodeGen9IrBuilder5vmRegEh(ptr noundef nonnull align 8 dereferenceable(752) %105, i8 noundef zeroext %108)
  %110 = getelementptr inbounds nuw %"struct.Luau::CodeGen::IrOp", ptr %20, i32 0, i32 0
  store i32 %109, ptr %110, align 4
  %111 = getelementptr inbounds nuw %"struct.Luau::CodeGen::IrOp", ptr %20, i32 0, i32 0
  %112 = load i32, ptr %111, align 4
  %113 = call i32 @_ZN4Luau7CodeGen9IrBuilder4instENS0_5IrCmdENS0_4IrOpE(ptr noundef nonnull align 8 dereferenceable(752) %104, i8 noundef zeroext 1, i32 %112)
  %114 = getelementptr inbounds nuw %"struct.Luau::CodeGen::IrOp", ptr %19, i32 0, i32 0
  store i32 %113, ptr %114, align 4
  %115 = load ptr, ptr %4, align 8, !tbaa !4
  call void @llvm.memcpy.p0.p0.i64(ptr align 4 %21, ptr align 4 %19, i64 4, i1 false), !tbaa.struct !112
  %116 = load ptr, ptr %4, align 8, !tbaa !4
  %117 = call i32 @_ZN4Luau7CodeGen9IrBuilder8constTagEh(ptr noundef nonnull align 8 dereferenceable(752) %116, i8 noundef zeroext 3)
  %118 = getelementptr inbounds nuw %"struct.Luau::CodeGen::IrOp", ptr %22, i32 0, i32 0
  store i32 %117, ptr %118, align 4
  call void @llvm.memcpy.p0.p0.i64(ptr align 4 %23, ptr align 4 %9, i64 4, i1 false), !tbaa.struct !112
  %119 = getelementptr inbounds nuw %"struct.Luau::CodeGen::IrOp", ptr %21, i32 0, i32 0
  %120 = load i32, ptr %119, align 4
  %121 = getelementptr inbounds nuw %"struct.Luau::CodeGen::IrOp", ptr %22, i32 0, i32 0
  %122 = load i32, ptr %121, align 4
  %123 = getelementptr inbounds nuw %"struct.Luau::CodeGen::IrOp", ptr %23, i32 0, i32 0
  %124 = load i32, ptr %123, align 4
  %125 = call i32 @_ZN4Luau7CodeGen9IrBuilder4instENS0_5IrCmdENS0_4IrOpES3_S3_(ptr noundef nonnull align 8 dereferenceable(752) %115, i8 noundef zeroext 82, i32 %120, i32 %122, i32 %124)
  %126 = getelementptr inbounds nuw %"struct.Luau::CodeGen::IrOp", ptr %24, i32 0, i32 0
  store i32 %125, ptr %126, align 4
  call void @llvm.lifetime.start.p0(i64 4, ptr %25) #13
  %127 = load ptr, ptr %4, align 8, !tbaa !4
  %128 = load ptr, ptr %4, align 8, !tbaa !4
  %129 = load i32, ptr %7, align 4, !tbaa !11
  %130 = add nsw i32 %129, 2
  %131 = trunc i32 %130 to i8
  %132 = call i32 @_ZN4Luau7CodeGen9IrBuilder5vmRegEh(ptr noundef nonnull align 8 dereferenceable(752) %128, i8 noundef zeroext %131)
  %133 = getelementptr inbounds nuw %"struct.Luau::CodeGen::IrOp", ptr %26, i32 0, i32 0
  store i32 %132, ptr %133, align 4
  %134 = getelementptr inbounds nuw %"struct.Luau::CodeGen::IrOp", ptr %26, i32 0, i32 0
  %135 = load i32, ptr %134, align 4
  %136 = call i32 @_ZN4Luau7CodeGen9IrBuilder4instENS0_5IrCmdENS0_4IrOpE(ptr noundef nonnull align 8 dereferenceable(752) %127, i8 noundef zeroext 3, i32 %135)
  %137 = getelementptr inbounds nuw %"struct.Luau::CodeGen::IrOp", ptr %25, i32 0, i32 0
  store i32 %136, ptr %137, align 4
  %138 = load ptr, ptr %4, align 8, !tbaa !4
  call void @llvm.memcpy.p0.p0.i64(ptr align 4 %27, ptr align 4 %25, i64 4, i1 false), !tbaa.struct !112
  %139 = load ptr, ptr %4, align 8, !tbaa !4
  %140 = call i32 @_ZN4Luau7CodeGen9IrBuilder11constDoubleEd(ptr noundef nonnull align 8 dereferenceable(752) %139, double noundef 0.000000e+00)
  %141 = getelementptr inbounds nuw %"struct.Luau::CodeGen::IrOp", ptr %28, i32 0, i32 0
  store i32 %140, ptr %141, align 4
  %142 = load ptr, ptr %4, align 8, !tbaa !4
  %143 = call i32 @_ZN4Luau7CodeGen9IrBuilder4condENS0_11IrConditionE(ptr noundef nonnull align 8 dereferenceable(752) %142, i8 noundef zeroext 1)
  %144 = getelementptr inbounds nuw %"struct.Luau::CodeGen::IrOp", ptr %29, i32 0, i32 0
  store i32 %143, ptr %144, align 4
  call void @llvm.memcpy.p0.p0.i64(ptr align 4 %30, ptr align 4 %9, i64 4, i1 false), !tbaa.struct !112
  call void @llvm.memcpy.p0.p0.i64(ptr align 4 %31, ptr align 4 %10, i64 4, i1 false), !tbaa.struct !112
  %145 = getelementptr inbounds nuw %"struct.Luau::CodeGen::IrOp", ptr %27, i32 0, i32 0
  %146 = load i32, ptr %145, align 4
  %147 = getelementptr inbounds nuw %"struct.Luau::CodeGen::IrOp", ptr %28, i32 0, i32 0
  %148 = load i32, ptr %147, align 4
  %149 = getelementptr inbounds nuw %"struct.Luau::CodeGen::IrOp", ptr %29, i32 0, i32 0
  %150 = load i32, ptr %149, align 4
  %151 = getelementptr inbounds nuw %"struct.Luau::CodeGen::IrOp", ptr %30, i32 0, i32 0
  %152 = load i32, ptr %151, align 4
  %153 = getelementptr inbounds nuw %"struct.Luau::CodeGen::IrOp", ptr %31, i32 0, i32 0
  %154 = load i32, ptr %153, align 4
  %155 = call i32 @_ZN4Luau7CodeGen9IrBuilder4instENS0_5IrCmdENS0_4IrOpES3_S3_S3_S3_(ptr noundef nonnull align 8 dereferenceable(752) %138, i8 noundef zeroext 52, i32 %146, i32 %148, i32 %150, i32 %152, i32 %154)
  %156 = getelementptr inbounds nuw %"struct.Luau::CodeGen::IrOp", ptr %32, i32 0, i32 0
  store i32 %155, ptr %156, align 4
  %157 = load ptr, ptr %4, align 8, !tbaa !4
  call void @llvm.memcpy.p0.p0.i64(ptr align 4 %33, ptr align 4 %10, i64 4, i1 false), !tbaa.struct !112
  %158 = getelementptr inbounds nuw %"struct.Luau::CodeGen::IrOp", ptr %33, i32 0, i32 0
  %159 = load i32, ptr %158, align 4
  call void @_ZN4Luau7CodeGen9IrBuilder10beginBlockENS0_4IrOpE(ptr noundef nonnull align 8 dereferenceable(752) %157, i32 %159)
  %160 = load ptr, ptr %4, align 8, !tbaa !4
  %161 = load ptr, ptr %4, align 8, !tbaa !4
  %162 = load i32, ptr %7, align 4, !tbaa !11
  %163 = trunc i32 %162 to i8
  %164 = call i32 @_ZN4Luau7CodeGen9IrBuilder5vmRegEh(ptr noundef nonnull align 8 dereferenceable(752) %161, i8 noundef zeroext %163)
  %165 = getelementptr inbounds nuw %"struct.Luau::CodeGen::IrOp", ptr %34, i32 0, i32 0
  store i32 %164, ptr %165, align 4
  %166 = load ptr, ptr %4, align 8, !tbaa !4
  %167 = call i32 @_ZN4Luau7CodeGen9IrBuilder8constTagEh(ptr noundef nonnull align 8 dereferenceable(752) %166, i8 noundef zeroext 0)
  %168 = getelementptr inbounds nuw %"struct.Luau::CodeGen::IrOp", ptr %35, i32 0, i32 0
  store i32 %167, ptr %168, align 4
  %169 = getelementptr inbounds nuw %"struct.Luau::CodeGen::IrOp", ptr %34, i32 0, i32 0
  %170 = load i32, ptr %169, align 4
  %171 = getelementptr inbounds nuw %"struct.Luau::CodeGen::IrOp", ptr %35, i32 0, i32 0
  %172 = load i32, ptr %171, align 4
  %173 = call i32 @_ZN4Luau7CodeGen9IrBuilder4instENS0_5IrCmdENS0_4IrOpES3_(ptr noundef nonnull align 8 dereferenceable(752) %160, i8 noundef zeroext 12, i32 %170, i32 %172)
  %174 = getelementptr inbounds nuw %"struct.Luau::CodeGen::IrOp", ptr %36, i32 0, i32 0
  store i32 %173, ptr %174, align 4
  %175 = load ptr, ptr %4, align 8, !tbaa !4
  %176 = load ptr, ptr %4, align 8, !tbaa !4
  %177 = load i32, ptr %7, align 4, !tbaa !11
  %178 = add nsw i32 %177, 2
  %179 = trunc i32 %178 to i8
  %180 = call i32 @_ZN4Luau7CodeGen9IrBuilder5vmRegEh(ptr noundef nonnull align 8 dereferenceable(752) %176, i8 noundef zeroext %179)
  %181 = getelementptr inbounds nuw %"struct.Luau::CodeGen::IrOp", ptr %37, i32 0, i32 0
  store i32 %180, ptr %181, align 4
  %182 = load ptr, ptr %4, align 8, !tbaa !4
  %183 = call i32 @_ZN4Luau7CodeGen9IrBuilder8constIntEi(ptr noundef nonnull align 8 dereferenceable(752) %182, i32 noundef 0)
  %184 = getelementptr inbounds nuw %"struct.Luau::CodeGen::IrOp", ptr %38, i32 0, i32 0
  store i32 %183, ptr %184, align 4
  %185 = getelementptr inbounds nuw %"struct.Luau::CodeGen::IrOp", ptr %37, i32 0, i32 0
  %186 = load i32, ptr %185, align 4
  %187 = getelementptr inbounds nuw %"struct.Luau::CodeGen::IrOp", ptr %38, i32 0, i32 0
  %188 = load i32, ptr %187, align 4
  %189 = call i32 @_ZN4Luau7CodeGen9IrBuilder4instENS0_5IrCmdENS0_4IrOpES3_(ptr noundef nonnull align 8 dereferenceable(752) %175, i8 noundef zeroext 14, i32 %186, i32 %188)
  %190 = getelementptr inbounds nuw %"struct.Luau::CodeGen::IrOp", ptr %39, i32 0, i32 0
  store i32 %189, ptr %190, align 4
  %191 = load ptr, ptr %4, align 8, !tbaa !4
  %192 = load ptr, ptr %4, align 8, !tbaa !4
  %193 = load i32, ptr %7, align 4, !tbaa !11
  %194 = add nsw i32 %193, 2
  %195 = trunc i32 %194 to i8
  %196 = call i32 @_ZN4Luau7CodeGen9IrBuilder5vmRegEh(ptr noundef nonnull align 8 dereferenceable(752) %192, i8 noundef zeroext %195)
  %197 = getelementptr inbounds nuw %"struct.Luau::CodeGen::IrOp", ptr %40, i32 0, i32 0
  store i32 %196, ptr %197, align 4
  %198 = load ptr, ptr %4, align 8, !tbaa !4
  %199 = call i32 @_ZN4Luau7CodeGen9IrBuilder8constIntEi(ptr noundef nonnull align 8 dereferenceable(752) %198, i32 noundef 128)
  %200 = getelementptr inbounds nuw %"struct.Luau::CodeGen::IrOp", ptr %41, i32 0, i32 0
  store i32 %199, ptr %200, align 4
  %201 = getelementptr inbounds nuw %"struct.Luau::CodeGen::IrOp", ptr %40, i32 0, i32 0
  %202 = load i32, ptr %201, align 4
  %203 = getelementptr inbounds nuw %"struct.Luau::CodeGen::IrOp", ptr %41, i32 0, i32 0
  %204 = load i32, ptr %203, align 4
  %205 = call i32 @_ZN4Luau7CodeGen9IrBuilder4instENS0_5IrCmdENS0_4IrOpES3_(ptr noundef nonnull align 8 dereferenceable(752) %191, i8 noundef zeroext 13, i32 %202, i32 %204)
  %206 = getelementptr inbounds nuw %"struct.Luau::CodeGen::IrOp", ptr %42, i32 0, i32 0
  store i32 %205, ptr %206, align 4
  %207 = load ptr, ptr %4, align 8, !tbaa !4
  %208 = load ptr, ptr %4, align 8, !tbaa !4
  %209 = load i32, ptr %7, align 4, !tbaa !11
  %210 = add nsw i32 %209, 2
  %211 = trunc i32 %210 to i8
  %212 = call i32 @_ZN4Luau7CodeGen9IrBuilder5vmRegEh(ptr noundef nonnull align 8 dereferenceable(752) %208, i8 noundef zeroext %211)
  %213 = getelementptr inbounds nuw %"struct.Luau::CodeGen::IrOp", ptr %43, i32 0, i32 0
  store i32 %212, ptr %213, align 4
  %214 = load ptr, ptr %4, align 8, !tbaa !4
  %215 = call i32 @_ZN4Luau7CodeGen9IrBuilder8constTagEh(ptr noundef nonnull align 8 dereferenceable(752) %214, i8 noundef zeroext 2)
  %216 = getelementptr inbounds nuw %"struct.Luau::CodeGen::IrOp", ptr %44, i32 0, i32 0
  store i32 %215, ptr %216, align 4
  %217 = getelementptr inbounds nuw %"struct.Luau::CodeGen::IrOp", ptr %43, i32 0, i32 0
  %218 = load i32, ptr %217, align 4
  %219 = getelementptr inbounds nuw %"struct.Luau::CodeGen::IrOp", ptr %44, i32 0, i32 0
  %220 = load i32, ptr %219, align 4
  %221 = call i32 @_ZN4Luau7CodeGen9IrBuilder4instENS0_5IrCmdENS0_4IrOpES3_(ptr noundef nonnull align 8 dereferenceable(752) %207, i8 noundef zeroext 12, i32 %218, i32 %220)
  %222 = getelementptr inbounds nuw %"struct.Luau::CodeGen::IrOp", ptr %45, i32 0, i32 0
  store i32 %221, ptr %222, align 4
  %223 = load ptr, ptr %4, align 8, !tbaa !4
  call void @llvm.memcpy.p0.p0.i64(ptr align 4 %46, ptr align 4 %8, i64 4, i1 false), !tbaa.struct !112
  %224 = getelementptr inbounds nuw %"struct.Luau::CodeGen::IrOp", ptr %46, i32 0, i32 0
  %225 = load i32, ptr %224, align 4
  %226 = call i32 @_ZN4Luau7CodeGen9IrBuilder4instENS0_5IrCmdENS0_4IrOpE(ptr noundef nonnull align 8 dereferenceable(752) %223, i8 noundef zeroext 46, i32 %225)
  %227 = getelementptr inbounds nuw %"struct.Luau::CodeGen::IrOp", ptr %47, i32 0, i32 0
  store i32 %226, ptr %227, align 4
  %228 = load ptr, ptr %4, align 8, !tbaa !4
  call void @llvm.memcpy.p0.p0.i64(ptr align 4 %48, ptr align 4 %9, i64 4, i1 false), !tbaa.struct !112
  %229 = getelementptr inbounds nuw %"struct.Luau::CodeGen::IrOp", ptr %48, i32 0, i32 0
  %230 = load i32, ptr %229, align 4
  call void @_ZN4Luau7CodeGen9IrBuilder10beginBlockENS0_4IrOpE(ptr noundef nonnull align 8 dereferenceable(752) %228, i32 %230)
  %231 = load ptr, ptr %4, align 8, !tbaa !4
  %232 = load ptr, ptr %4, align 8, !tbaa !4
  %233 = load i32, ptr %6, align 4, !tbaa !11
  %234 = call i32 @_ZN4Luau7CodeGen9IrBuilder9constUintEj(ptr noundef nonnull align 8 dereferenceable(752) %232, i32 noundef %233)
  %235 = getelementptr inbounds nuw %"struct.Luau::CodeGen::IrOp", ptr %49, i32 0, i32 0
  store i32 %234, ptr %235, align 4
  %236 = load ptr, ptr %4, align 8, !tbaa !4
  %237 = load i32, ptr %7, align 4, !tbaa !11
  %238 = trunc i32 %237 to i8
  %239 = call i32 @_ZN4Luau7CodeGen9IrBuilder5vmRegEh(ptr noundef nonnull align 8 dereferenceable(752) %236, i8 noundef zeroext %238)
  %240 = getelementptr inbounds nuw %"struct.Luau::CodeGen::IrOp", ptr %50, i32 0, i32 0
  store i32 %239, ptr %240, align 4
  call void @llvm.memcpy.p0.p0.i64(ptr align 4 %51, ptr align 4 %8, i64 4, i1 false), !tbaa.struct !112
  %241 = getelementptr inbounds nuw %"struct.Luau::CodeGen::IrOp", ptr %49, i32 0, i32 0
  %242 = load i32, ptr %241, align 4
  %243 = getelementptr inbounds nuw %"struct.Luau::CodeGen::IrOp", ptr %50, i32 0, i32 0
  %244 = load i32, ptr %243, align 4
  %245 = getelementptr inbounds nuw %"struct.Luau::CodeGen::IrOp", ptr %51, i32 0, i32 0
  %246 = load i32, ptr %245, align 4
  %247 = call i32 @_ZN4Luau7CodeGen9IrBuilder4instENS0_5IrCmdENS0_4IrOpES3_S3_(ptr noundef nonnull align 8 dereferenceable(752) %231, i8 noundef zeroext 106, i32 %242, i32 %244, i32 %246)
  %248 = getelementptr inbounds nuw %"struct.Luau::CodeGen::IrOp", ptr %52, i32 0, i32 0
  store i32 %247, ptr %248, align 4
  call void @llvm.lifetime.end.p0(i64 4, ptr %25) #13
  call void @llvm.lifetime.end.p0(i64 4, ptr %19) #13
  call void @llvm.lifetime.end.p0(i64 4, ptr %13) #13
  call void @llvm.lifetime.end.p0(i64 4, ptr %10) #13
  call void @llvm.lifetime.end.p0(i64 4, ptr %9) #13
  call void @llvm.lifetime.end.p0(i64 4, ptr %8) #13
  call void @llvm.lifetime.end.p0(i64 4, ptr %7) #13
  ret void
}